target datalayout = "e-m:e-p270:32:32-p271:32:32-p272:64:64-i64:64-i128:128-f80:128-n8:16:32:64-S128"
target triple = "x86_64-pc-linux-gnu"

%struct.rax = type { ptr, i64, i64, [0 x ptr] }

@lazyfree_objects = internal global i64 0, align 8

; Function Attrs: nounwind uwtable
define dso_local void @freeErrorsRadixTreeAsync(ptr noundef %0) #0 {
  %2 = alloca ptr, align 8
  %3 = alloca i64, align 8
  %4 = alloca i64, align 8
  store ptr %0, ptr %2, align 8, !tbaa !15
  %5 = load ptr, ptr %2, align 8, !tbaa !15
  %6 = getelementptr inbounds nuw %struct.rax, ptr %5, i32 0, i32 2
  %7 = load i64, ptr %6, align 8, !tbaa !11
  %8 = icmp ugt i64 %7, 64
  br i1 %8, label %9, label %16

9:                                                ; preds = %1
  %10 = load ptr, ptr %2, align 8, !tbaa !15
  %11 = getelementptr inbounds nuw %struct.rax, ptr %10, i32 0, i32 1
  %12 = load i64, ptr %11, align 8, !tbaa !11
  store i64 %12, ptr %3, align 8, !tbaa !11
  %13 = load i64, ptr %3, align 8
  %14 = atomicrmw add ptr @lazyfree_objects, i64 %13 monotonic, align 8
  store i64 %14, ptr %4, align 8
  %15 = load ptr, ptr %2, align 8, !tbaa !15
  call void (ptr, i32, ...) @bioCreateLazyFreeJob(ptr noundef @lazyFreeErrors, i32 noundef 1, ptr noundef %15)
  br label %18

16:                                               ; preds = %1
  %17 = load ptr, ptr %2, align 8, !tbaa !15
  call void @raxFreeWithCallback(ptr noundef %17, ptr noundef @zfree)
  br label %18

18:                                               ; preds = %16, %9
  ret void
}