; Function Attrs: nounwind uwtable
define dso_local void @freeErrorsRadixTreeAsync(ptr noundef %0) local_unnamed_addr #0 {
  %2 = getelementptr inbounds nuw i8, ptr %0, i64 16
  %3 = load i64, ptr %2, align 8, !tbaa !9
  %4 = icmp ugt i64 %3, 64
  br i1 %4, label %5, label %9

5:                                                ; preds = %1
  %6 = getelementptr inbounds nuw i8, ptr %0, i64 8
  %7 = load i64, ptr %6, align 8, !tbaa !9
  %8 = atomicrmw add ptr @lazyfree_objects, i64 %7 monotonic, align 8
  tail call void (ptr, i32, ...) @bioCreateLazyFreeJob(ptr noundef nonnull @lazyFreeErrors, i32 noundef 1, ptr noundef nonnull %0) #6
  br label %10

9:                                                ; preds = %1
  tail call void @raxFreeWithCallback(ptr noundef nonnull %0, ptr noundef nonnull @zfree) #6
  br label %10

10:                                               ; preds = %9, %5
  ret void
}